; Function Attrs: null_pointer_is_valid sspstrong uwtable
define internal fastcc void @parse_SMInfo(ptr noundef %0, ptr noundef %1, i32 %.0.val) unnamed_addr #0 {
  %.not = icmp eq ptr %0, null
  br i1 %.not, label %21, label %3

3:                                                ; preds = %2
  %4 = load i32, ptr @hf_infiniband_smp_data, align 4
  %5 = tail call ptr @proto_tree_add_item(ptr noundef nonnull %0, i32 noundef %4, ptr noundef %1, i32 noundef %.0.val, i32 noundef 64, i32 noundef 0)
  tail call void (ptr, ptr, ...) @proto_item_set_text(ptr noundef %5, ptr noundef nonnull @.str.1230, ptr noundef nonnull @.str.1484)
  %6 = load i32, ptr @ett_sminfo, align 4
  %7 = tail call ptr @proto_item_add_subtree(ptr noundef %5, i32 noundef %6)
  %8 = load i32, ptr @hf_infiniband_SMInfo_GUID, align 4
  %9 = tail call ptr @proto_tree_add_item(ptr noundef %7, i32 noundef %8, ptr noundef %1, i32 noundef %.0.val, i32 noundef 8, i32 noundef 0)
  %10 = add i32 %.0.val, 8
  %11 = load i32, ptr @hf_infiniband_SMInfo_SM_Key, align 4
  %12 = tail call ptr @proto_tree_add_item(ptr noundef %7, i32 noundef %11, ptr noundef %1, i32 noundef %10, i32 noundef 8, i32 noundef 0)
  %13 = add i32 %.0.val, 16
  %14 = load i32, ptr @hf_infiniband_SMInfo_ActCount, align 4
  %15 = tail call ptr @proto_tree_add_item(ptr noundef %7, i32 noundef %14, ptr noundef %1, i32 noundef %13, i32 noundef 4, i32 noundef 0)
  %16 = add i32 %.0.val, 20
  %17 = load i32, ptr @hf_infiniband_SMInfo_Priority, align 4
  %18 = tail call ptr @proto_tree_add_item(ptr noundef %7, i32 noundef %17, ptr noundef %1, i32 noundef %16, i32 noundef 1, i32 noundef 0)
  %19 = load i32, ptr @hf_infiniband_SMInfo_SMState, align 4
  %20 = tail call ptr @proto_tree_add_item(ptr noundef %7, i32 noundef %19, ptr noundef %1, i32 noundef %16, i32 noundef 1, i32 noundef 0)
  br label %21

21:                                               ; preds = %2, %3
  ret void
}